target datalayout = "e-m:e-p270:32:32-p271:32:32-p272:64:64-i64:64-i128:128-f80:128-n8:16:32:64-S128"
target triple = "x86_64-unknown-linux-gnu"

%"struct.hermes::vm::SamplingProfiler::StackFrame" = type { %union.anon.184, i32 }
%union.anon.184 = type { %"struct.hermes::vm::SamplingProfiler::JSFunctionFrameInfo" }
%"struct.hermes::vm::SamplingProfiler::JSFunctionFrameInfo" = type { ptr, i32, i32 }

; Function Attrs: mustprogress nounwind uwtable
define hidden noundef zeroext i1 @_ZN6hermes2vmeqERKNS0_16SamplingProfiler10StackFrameES4_(ptr noundef nonnull align 8 dereferenceable(24) %left, ptr noundef nonnull align 8 dereferenceable(24) %right) #0 {
entry:
  %retval = alloca i1, align 1
  %left.addr = alloca ptr, align 8
  %right.addr = alloca ptr, align 8
  store ptr %left, ptr %left.addr, align 8
  store ptr %right, ptr %right.addr, align 8
  %0 = load ptr, ptr %left.addr, align 8
  %kind = getelementptr inbounds %"struct.hermes::vm::SamplingProfiler::StackFrame", ptr %0, i32 0, i32 1
  %1 = load i32, ptr %kind, align 8
  %2 = load ptr, ptr %right.addr, align 8
  %kind1 = getelementptr inbounds %"struct.hermes::vm::SamplingProfiler::StackFrame", ptr %2, i32 0, i32 1
  %3 = load i32, ptr %kind1, align 8
  %cmp = icmp ne i32 %1, %3
  br i1 %cmp, label %if.then, label %if.end

if.then:                                          ; preds = %entry
  store i1 false, ptr %retval, align 1
  br label %return

if.end:                                           ; preds = %entry
  %4 = load ptr, ptr %left.addr, align 8
  %kind2 = getelementptr inbounds %"struct.hermes::vm::SamplingProfiler::StackFrame", ptr %4, i32 0, i32 1
  %5 = load i32, ptr %kind2, align 8
  switch i32 %5, label %sw.default [
    i32 0, label %sw.bb
    i32 1, label %sw.bb7
    i32 2, label %sw.bb7
    i32 3, label %sw.bb9
  ]

sw.bb:                                            ; preds = %if.end
  %6 = load ptr, ptr %left.addr, align 8
  %7 = getelementptr inbounds %"struct.hermes::vm::SamplingProfiler::StackFrame", ptr %6, i32 0, i32 0
  %functionId = getelementptr inbounds %"struct.hermes::vm::SamplingProfiler::JSFunctionFrameInfo", ptr %7, i32 0, i32 1
  %8 = load i32, ptr %functionId, align 8
  %9 = load ptr, ptr %right.addr, align 8
  %10 = getelementptr inbounds %"struct.hermes::vm::SamplingProfiler::StackFrame", ptr %9, i32 0, i32 0
  %functionId3 = getelementptr inbounds %"struct.hermes::vm::SamplingProfiler::JSFunctionFrameInfo", ptr %10, i32 0, i32 1
  %11 = load i32, ptr %functionId3, align 8
  %cmp4 = icmp eq i32 %8, %11
  br i1 %cmp4, label %land.rhs, label %land.end

land.rhs:                                         ; preds = %sw.bb
  %12 = load ptr, ptr %left.addr, align 8
  %13 = getelementptr inbounds %"struct.hermes::vm::SamplingProfiler::StackFrame", ptr %12, i32 0, i32 0
  %offset = getelementptr inbounds %"struct.hermes::vm::SamplingProfiler::JSFunctionFrameInfo", ptr %13, i32 0, i32 2
  %14 = load i32, ptr %offset, align 4
  %15 = load ptr, ptr %right.addr, align 8
  %16 = getelementptr inbounds %"struct.hermes::vm::SamplingProfiler::StackFrame", ptr %15, i32 0, i32 0
  %offset5 = getelementptr inbounds %"struct.hermes::vm::SamplingProfiler::JSFunctionFrameInfo", ptr %16, i32 0, i32 2
  %17 = load i32, ptr %offset5, align 4
  %cmp6 = icmp eq i32 %14, %17
  br label %land.end

land.end:                                         ; preds = %land.rhs, %sw.bb
  %18 = phi i1 [ false, %sw.bb ], [ %cmp6, %land.rhs ]
  store i1 %18, ptr %retval, align 1
  br label %return

sw.bb7:                                           ; preds = %if.end, %if.end
  %19 = load ptr, ptr %left.addr, align 8
  %20 = getelementptr inbounds %"struct.hermes::vm::SamplingProfiler::StackFrame", ptr %19, i32 0, i32 0
  %21 = load i64, ptr %20, align 8
  %22 = load ptr, ptr %right.addr, align 8
  %23 = getelementptr inbounds %"struct.hermes::vm::SamplingProfiler::StackFrame", ptr %22, i32 0, i32 0
  %24 = load i64, ptr %23, align 8
  %cmp8 = icmp eq i64 %21, %24
  store i1 %cmp8, ptr %retval, align 1
  br label %return

sw.bb9:                                           ; preds = %if.end
  %25 = load ptr, ptr %left.addr, align 8
  %26 = getelementptr inbounds %"struct.hermes::vm::SamplingProfiler::StackFrame", ptr %25, i32 0, i32 0
  %27 = load ptr, ptr %26, align 8
  %28 = load ptr, ptr %right.addr, align 8
  %29 = getelementptr inbounds %"struct.hermes::vm::SamplingProfiler::StackFrame", ptr %28, i32 0, i32 0
  %30 = load ptr, ptr %29, align 8
  %cmp10 = icmp eq ptr %27, %30
  store i1 %cmp10, ptr %retval, align 1
  br label %return

sw.default:                                       ; preds = %if.end
  unreachable

return:                                           ; preds = %sw.bb9, %sw.bb7, %land.end, %if.then
  %31 = load i1, ptr %retval, align 1
  ret i1 %31
}