; Function Attrs: mustprogress nofree norecurse nosync nounwind willreturn memory(argmem: read) uwtable
define hidden noundef zeroext i1 @_ZN6hermes2vmeqERKNS0_16SamplingProfiler10StackFrameES4_(ptr nocapture noundef nonnull readonly align 8 dereferenceable(24) %left, ptr nocapture noundef nonnull readonly align 8 dereferenceable(24) %right) local_unnamed_addr #4 {
entry:
  %kind = getelementptr inbounds i8, ptr %left, i64 16
  %0 = load i32, ptr %kind, align 8
  %kind1 = getelementptr inbounds i8, ptr %right, i64 16
  %1 = load i32, ptr %kind1, align 8
  %cmp.not = icmp eq i32 %0, %1
  br i1 %cmp.not, label %if.end, label %return

if.end:                                           ; preds = %entry
  switch i32 %0, label %sw.default [
    i32 0, label %sw.bb
    i32 1, label %sw.bb7
    i32 2, label %sw.bb7
    i32 3, label %sw.bb9
  ]

sw.bb:                                            ; preds = %if.end
  %functionId = getelementptr inbounds i8, ptr %left, i64 8
  %functionId3 = getelementptr inbounds i8, ptr %right, i64 8
  %2 = load <2 x i32>, ptr %functionId, align 8
  %3 = load <2 x i32>, ptr %functionId3, align 8
  %4 = icmp eq <2 x i32> %2, %3
  %5 = extractelement <2 x i1> %4, i64 0
  %6 = extractelement <2 x i1> %4, i64 1
  %7 = select i1 %5, i1 %6, i1 false
  br label %return

sw.bb7:                                           ; preds = %if.end, %if.end
  %8 = load i64, ptr %left, align 8
  %9 = load i64, ptr %right, align 8
  %cmp8 = icmp eq i64 %8, %9
  br label %return

sw.bb9:                                           ; preds = %if.end
  %10 = load ptr, ptr %left, align 8
  %11 = load ptr, ptr %right, align 8
  %cmp10 = icmp eq ptr %10, %11
  br label %return

sw.default:                                       ; preds = %if.end
  unreachable

return:                                           ; preds = %entry, %sw.bb9, %sw.bb7, %sw.bb
  %retval.0 = phi i1 [ %cmp10, %sw.bb9 ], [ %cmp8, %sw.bb7 ], [ %7, %sw.bb ], [ false, %entry ]
  ret i1 %retval.0
}